target datalayout = "e-m:e-p270:32:32-p271:32:32-p272:64:64-i64:64-i128:128-f80:128-n8:16:32:64-S128"
target triple = "x86_64-unknown-linux-gnu"

%class.symbol = type { ptr }
%"class.smt::setup" = type <{ ptr, ptr, ptr, %class.symbol, i8, [7 x i8] }>

; Function Attrs: mustprogress uwtable
define hidden void @_ZN3smt5setup10setup_cardEv(ptr noundef nonnull align 8 dereferenceable(33) %this) #5 align 2 {
entry:
  %this.addr = alloca ptr, align 8
  store ptr %this, ptr %this.addr, align 8
  %this1 = load ptr, ptr %this.addr, align 8
  %m_context = getelementptr inbounds %"class.smt::setup", ptr %this1, i32 0, i32 0
  %0 = load ptr, ptr %m_context, align 8
  %call = call noalias noundef ptr @_ZN6memory8allocateEm(i64 noundef 968)
  %m_context2 = getelementptr inbounds %"class.smt::setup", ptr %this1, i32 0, i32 0
  %1 = load ptr, ptr %m_context2, align 8
  call void @_ZN3smt9theory_pbC1ERNS_7contextE(ptr noundef nonnull align 8 dereferenceable(968) %call, ptr noundef nonnull align 8 dereferenceable(11616) %1)
  call void @_ZN3smt7context15register_pluginEPNS_6theoryE(ptr noundef nonnull align 8 dereferenceable(11616) %0, ptr noundef %call)
  ret void
}

; Function Attrs: mustprogress uwtable
define hidden void @_ZN3smt5setupclENS_11config_modeE(ptr noundef nonnull align 8 dereferenceable(33) %this, i32 noundef %cm) #5 align 2 {
entry:
  %this.addr = alloca ptr, align 8
  %cm.addr = alloca i32, align 4
  store ptr %this, ptr %this.addr, align 8
  store i32 %cm, ptr %cm.addr, align 4
  %this1 = load ptr, ptr %this.addr, align 8
  %m_already_configured = getelementptr inbounds %"class.smt::setup", ptr %this1, i32 0, i32 4
  store i8 1, ptr %m_already_configured, align 8
  %0 = load i32, ptr %cm.addr, align 4
  switch i32 %0, label %sw.epilog [
    i32 0, label %sw.bb
    i32 1, label %sw.bb2
    i32 2, label %sw.bb3
  ]

sw.bb:                                            ; preds = %entry
  call void @_ZN3smt5setup13setup_unknownEv(ptr noundef nonnull align 8 dereferenceable(33) %this1)
  br label %sw.epilog

sw.bb2:                                           ; preds = %entry
  call void @_ZN3smt5setup13setup_defaultEv(ptr noundef nonnull align 8 dereferenceable(33) %this1)
  br label %sw.epilog

sw.bb3:                                           ; preds = %entry
  call void @_ZN3smt5setup17setup_auto_configEv(ptr noundef nonnull align 8 dereferenceable(33) %this1)
  br label %sw.epilog

sw.epilog:                                        ; preds = %sw.bb3, %sw.bb2, %sw.bb, %entry
  call void @_ZN3smt5setup10setup_cardEv(ptr noundef nonnull align 8 dereferenceable(33) %this1)
  ret void
}