; Function Attrs: mustprogress uwtable
define hidden void @_ZN3smt5setupclENS_11config_modeE(ptr noundef nonnull align 8 dereferenceable(33) %this, i32 noundef %cm) local_unnamed_addr #4 align 2 {
entry:
  %m_already_configured = getelementptr inbounds i8, ptr %this, i64 32
  store i8 1, ptr %m_already_configured, align 8
  switch i32 %cm, label %sw.epilog [
    i32 0, label %sw.bb
    i32 1, label %sw.bb2
    i32 2, label %sw.bb3
  ]

sw.bb:                                            ; preds = %entry
  tail call void @_ZN3smt5setup13setup_unknownEv(ptr noundef nonnull align 8 dereferenceable(33) %this)
  br label %sw.epilog

sw.bb2:                                           ; preds = %entry
  tail call void @_ZN3smt5setup13setup_defaultEv(ptr noundef nonnull align 8 dereferenceable(33) %this)
  br label %sw.epilog

sw.bb3:                                           ; preds = %entry
  tail call void @_ZN3smt5setup17setup_auto_configEv(ptr noundef nonnull align 8 dereferenceable(33) %this)
  br label %sw.epilog

sw.epilog:                                        ; preds = %sw.bb3, %sw.bb2, %sw.bb, %entry
  %0 = load ptr, ptr %this, align 8
  %call.i = tail call noalias noundef ptr @_ZN6memory8allocateEm(i64 noundef 968)
  %1 = load ptr, ptr %this, align 8
  tail call void @_ZN3smt9theory_pbC1ERNS_7contextE(ptr noundef nonnull align 8 dereferenceable(968) %call.i, ptr noundef nonnull align 8 dereferenceable(11616) %1)
  tail call void @_ZN3smt7context15register_pluginEPNS_6theoryE(ptr noundef nonnull align 8 dereferenceable(11616) %0, ptr noundef nonnull %call.i)
  ret void
}